; Function Attrs: mustprogress nounwind uwtable
define dso_local void @_ZN4llvm14DependenceInfo18unifySubscriptTypeENS_8ArrayRefIPNS0_9SubscriptEEE(ptr nocapture noundef nonnull readonly align 8 dereferenceable(44) %0, ptr readonly %1, i64 %2) local_unnamed_addr #0 align 2 {
  %4 = getelementptr inbounds ptr, ptr %1, i64 %2
  %.not65 = icmp eq i64 %2, 0
  br i1 %.not65, label %._crit_edge, label %.lr.ph

.lr.ph72:                                         ; preds = %31
  %5 = getelementptr inbounds nuw i8, ptr %0, i64 8
  br label %33

.lr.ph:                                           ; preds = %3, %31
  %.068 = phi i32 [ %.1, %31 ], [ 0, %3 ]
  %.04567 = phi ptr [ %.146, %31 ], [ undef, %3 ]
  %.04866 = phi ptr [ %32, %31 ], [ %1, %3 ]
  %6 = load ptr, ptr %.04866, align 8
  %7 = load ptr, ptr %6, align 8
  %8 = getelementptr inbounds nuw i8, ptr %6, i64 8
  %9 = load ptr, ptr %8, align 8
  %10 = tail call noundef ptr @_ZNK4llvm4SCEV7getTypeEv(ptr noundef nonnull align 8 dereferenceable(30) %7) #23
  %11 = getelementptr inbounds nuw i8, ptr %10, i64 8
  %12 = load i32, ptr %11, align 8
  %13 = and i32 %12, 255
  %14 = icmp eq i32 %13, 12
  %spec.select.i.i = select i1 %14, ptr %10, ptr null
  %15 = tail call noundef ptr @_ZNK4llvm4SCEV7getTypeEv(ptr noundef nonnull align 8 dereferenceable(30) %9) #23
  %16 = getelementptr inbounds nuw i8, ptr %15, i64 8
  %17 = load i32, ptr %16, align 8
  %18 = and i32 %17, 255
  %19 = icmp eq i32 %18, 12
  %spec.select.i.i55 = select i1 %19, ptr %15, ptr null
  %20 = icmp eq ptr %spec.select.i.i, null
  %21 = icmp eq ptr %spec.select.i.i55, null
  %or.cond = or i1 %20, %21
  br i1 %or.cond, label %31, label %22

22:                                               ; preds = %.lr.ph
  %23 = getelementptr inbounds nuw i8, ptr %spec.select.i.i, i64 8
  %24 = load i32, ptr %23, align 8
  %25 = lshr i32 %24, 8
  %26 = icmp ugt i32 %25, %.068
  %spec.select = select i1 %26, ptr %10, ptr %.04567
  %spec.select62 = tail call i32 @llvm.umax.i32(i32 %25, i32 %.068)
  %27 = getelementptr inbounds nuw i8, ptr %spec.select.i.i55, i64 8
  %28 = load i32, ptr %27, align 8
  %29 = lshr i32 %28, 8
  %30 = icmp ugt i32 %29, %spec.select62
  %spec.select63 = select i1 %30, ptr %15, ptr %spec.select
  %spec.select64 = tail call i32 @llvm.umax.i32(i32 %29, i32 %spec.select62)
  br label %31

31:                                               ; preds = %22, %.lr.ph
  %.146 = phi ptr [ %.04567, %.lr.ph ], [ %spec.select63, %22 ]
  %.1 = phi i32 [ %.068, %.lr.ph ], [ %spec.select64, %22 ]
  %32 = getelementptr inbounds i8, ptr %.04866, i64 8
  %.not = icmp eq ptr %32, %4
  br i1 %.not, label %.lr.ph72, label %.lr.ph

33:                                               ; preds = %.lr.ph72, %66
  %.04971 = phi ptr [ %1, %.lr.ph72 ], [ %67, %66 ]
  %34 = load ptr, ptr %.04971, align 8
  %35 = load ptr, ptr %34, align 8
  %36 = getelementptr inbounds nuw i8, ptr %34, i64 8
  %37 = load ptr, ptr %36, align 8
  %38 = tail call noundef ptr @_ZNK4llvm4SCEV7getTypeEv(ptr noundef nonnull align 8 dereferenceable(30) %35) #23
  %39 = getelementptr inbounds nuw i8, ptr %38, i64 8
  %40 = load i32, ptr %39, align 8
  %41 = and i32 %40, 255
  %42 = icmp eq i32 %41, 12
  %spec.select.i.i56 = select i1 %42, ptr %38, ptr null
  %43 = tail call noundef ptr @_ZNK4llvm4SCEV7getTypeEv(ptr noundef nonnull align 8 dereferenceable(30) %37) #23
  %44 = getelementptr inbounds nuw i8, ptr %43, i64 8
  %45 = load i32, ptr %44, align 8
  %46 = and i32 %45, 255
  %47 = icmp eq i32 %46, 12
  %spec.select.i.i57 = select i1 %47, ptr %43, ptr null
  %48 = icmp eq ptr %spec.select.i.i56, null
  %49 = icmp eq ptr %spec.select.i.i57, null
  %or.cond3 = or i1 %48, %49
  br i1 %or.cond3, label %66, label %50

50:                                               ; preds = %33
  %51 = getelementptr inbounds nuw i8, ptr %spec.select.i.i56, i64 8
  %52 = load i32, ptr %51, align 8
  %53 = lshr i32 %52, 8
  %54 = icmp ult i32 %53, %.1
  br i1 %54, label %55, label %58

55:                                               ; preds = %50
  %56 = load ptr, ptr %5, align 8
  %57 = tail call noundef ptr @_ZN4llvm15ScalarEvolution17getSignExtendExprEPKNS_4SCEVEPNS_4TypeEj(ptr noundef nonnull align 8 dereferenceable(1392) %56, ptr noundef nonnull %35, ptr noundef %.146, i32 noundef 0) #23
  store ptr %57, ptr %34, align 8
  br label %58

58:                                               ; preds = %55, %50
  %59 = getelementptr inbounds nuw i8, ptr %spec.select.i.i57, i64 8
  %60 = load i32, ptr %59, align 8
  %61 = lshr i32 %60, 8
  %62 = icmp ult i32 %61, %.1
  br i1 %62, label %63, label %66

63:                                               ; preds = %58
  %64 = load ptr, ptr %5, align 8
  %65 = tail call noundef ptr @_ZN4llvm15ScalarEvolution17getSignExtendExprEPKNS_4SCEVEPNS_4TypeEj(ptr noundef nonnull align 8 dereferenceable(1392) %64, ptr noundef nonnull %37, ptr noundef %.146, i32 noundef 0) #23
  store ptr %65, ptr %36, align 8
  br label %66

66:                                               ; preds = %58, %63, %33
  %67 = getelementptr inbounds i8, ptr %.04971, i64 8
  %.not54 = icmp eq ptr %67, %4
  br i1 %.not54, label %._crit_edge, label %33

._crit_edge:                                      ; preds = %66, %3
  ret void
}